target datalayout = "e-m:e-p270:32:32-p271:32:32-p272:64:64-i64:64-i128:128-f80:128-n8:16:32:64-S128"
target triple = "x86_64-pc-linux-gnu"

%struct.AVRational = type { i32, i32 }
%struct.Mpeg4DecContext = type { %struct.MpegEncContext, i32, i32, i32, i32, i32, i32, i32, i32, i32, [2 x [2 x i32]], [2 x [2 x i32]], [4 x [2 x i16]], [2 x i32], i32, i32, i32, i32, i32, i32, i32, i32, i32, i32, i32, i32, ptr, i32, i32, i32, i32, i32, i32, i32, %struct.Mpeg4VideoDSPContext, ptr, ptr, [12 x [64 x i32]], i32, [3 x [256 x i16]] }
%struct.MpegEncContext = type { ptr, i32, i32, i32, [12 x i32], i32, %struct.ScanTable, %struct.ScanTable, [64 x i8], [64 x i8], ptr, ptr, i32, i32, i32, i32, i32, i32, i32, i32, i32, i32, i32, i32, i32, i32, i32, i32, i32, i32, i32, i32, i64, i64, ptr, %struct.BufferPoolContext, i32, i32, %union.anon, i32, %struct.MPVWorkPicture, %struct.MPVWorkPicture, %struct.MPVWorkPicture, i32, [3 x i32], ptr, [3 x ptr], ptr, ptr, ptr, ptr, ptr, ptr, [3 x ptr], i32, ptr, ptr, ptr, ptr, %struct.ScratchpadContext, i32, i32, i32, i32, i32, i32, %struct.BlockDSPContext, %struct.H264ChromaContext, %struct.HpelDSPContext, %struct.IDCTDSPContext, %struct.QpelDSPContext, %struct.VideoDSPContext, %struct.H263DSPContext, ptr, [2 x [2 x ptr]], i32, i32, [2 x [4 x [2 x i32]]], [2 x [2 x i32]], [2 x [2 x [2 x i32]]], [2 x [64 x i16]], i32, i32, i32, i32, i32, [6 x i32], [6 x i32], [3 x ptr], ptr, [64 x i16], [64 x i16], [64 x i16], [64 x i16], i32, i32, %struct.GetBitContext, i32, i32, i32, i32, i32, i32, i32, i32, i32, i32, i32, i32, i32, i32, i32, i64, i64, i16, i16, i16, i16, i32, i32, i32, i32, i32, i32, i32, i32, i32, [3 x i32], i32, i32, i32, i32, i32, i32, %struct.GetBitContext, i32, [2 x [2 x i32]], i32, i32, i32, i32, i32, i32, i32, i32, i32, i32, i32, i32, i32, i32, [2 x i32], i32, i32, ptr, ptr, ptr, ptr, ptr, i32, i32, %struct.ERContext }
%struct.ScanTable = type { ptr, [64 x i8], [64 x i8] }
%struct.BufferPoolContext = type { ptr, ptr, ptr, ptr, ptr, i32, i32, i32 }
%union.anon = type { [32 x ptr] }
%struct.MPVWorkPicture = type { [3 x ptr], [3 x i64], ptr, ptr, [2 x ptr], ptr, ptr, [2 x ptr], i32 }
%struct.ScratchpadContext = type { ptr, ptr, %union.anon.0, i32 }
%union.anon.0 = type { ptr }
%struct.BlockDSPContext = type { ptr, ptr, [2 x ptr] }
%struct.H264ChromaContext = type { [4 x ptr], [4 x ptr] }
%struct.HpelDSPContext = type { [4 x [4 x ptr]], [4 x [4 x ptr]], [4 x [4 x ptr]], [4 x ptr] }
%struct.IDCTDSPContext = type { ptr, ptr, ptr, ptr, ptr, ptr, [64 x i8], i32, i32 }
%struct.QpelDSPContext = type { [2 x [16 x ptr]], [2 x [16 x ptr]], [2 x [16 x ptr]] }
%struct.VideoDSPContext = type { ptr, ptr }
%struct.H263DSPContext = type { ptr, ptr }
%struct.GetBitContext = type { ptr, ptr, i32, i32, i32 }
%struct.ERContext = type { ptr, ptr, i32, ptr, i32, i32, i32, i64, i64, i32, i32, ptr, ptr, [3 x ptr], ptr, ptr, [2 x [4 x [2 x i32]]], %struct.ERPicture, %struct.ERPicture, %struct.ERPicture, [2 x ptr], [2 x ptr], i16, i16, i32, i32, ptr, ptr }
%struct.ERPicture = type { ptr, ptr, ptr, [2 x ptr], [2 x ptr], ptr, i32 }
%struct.Mpeg4VideoDSPContext = type { ptr, ptr }
%struct.AVCodecContext = type { ptr, i32, i32, ptr, i32, i32, ptr, ptr, ptr, i64, i32, i32, ptr, i32, %struct.AVRational, %struct.AVRational, %struct.AVRational, i32, i32, i32, i32, i32, %struct.AVRational, i32, i32, i32, i32, i32, i32, i32, i32, i32, i32, i32, ptr, ptr, i32, float, float, float, float, float, float, float, float, float, i32, i32, i32, i32, i32, i32, i32, i32, i32, i32, i32, i32, ptr, ptr, ptr, i32, i32, i32, i32, i32, i32, i32, i32, i32, i32, %struct.AVChannelLayout, i32, i32, i32, i32, i32, i32, i32, i32, ptr, i32, i32, i32, float, float, i32, i32, i32, i32, i32, ptr, i64, i64, float, float, i32, i32, ptr, ptr, i32, i32, i32, i32, i32, ptr, ptr, ptr, ptr, i32, i32, [8 x i64], i32, i32, i32, i32, i32, i32, i32, ptr, ptr, i32, i32, i32, i32, i32, i32, i32, i32, i32, i32, ptr, ptr, i32, i32, ptr, ptr, ptr, ptr, i32, i32, i64, i32, i32, i64, ptr, i64, ptr, i32, ptr, i32 }
%struct.AVChannelLayout = type { i32, i32, %union.anon.1, ptr }
%union.anon.1 = type { i64 }

; Function Attrs: nounwind uwtable
define internal i32 @mpeg4_update_thread_context(ptr noundef %0, ptr noundef %1) #0 {
  %3 = alloca i32, align 4
  %4 = alloca ptr, align 8
  %5 = alloca ptr, align 8
  %6 = alloca ptr, align 8
  %7 = alloca ptr, align 8
  %8 = alloca i32, align 4
  %9 = alloca i32, align 4
  %10 = alloca i32, align 4
  store ptr %0, ptr %4, align 8, !tbaa !159
  store ptr %1, ptr %5, align 8, !tbaa !159
  call void @llvm.lifetime.start.p0(i64 8, ptr %6) #13
  %11 = load ptr, ptr %4, align 8, !tbaa !159
  %12 = getelementptr inbounds nuw %struct.AVCodecContext, ptr %11, i32 0, i32 6
  %13 = load ptr, ptr %12, align 8, !tbaa !160
  store ptr %13, ptr %6, align 8, !tbaa !14
  call void @llvm.lifetime.start.p0(i64 8, ptr %7) #13
  %14 = load ptr, ptr %5, align 8, !tbaa !159
  %15 = getelementptr inbounds nuw %struct.AVCodecContext, ptr %14, i32 0, i32 6
  %16 = load ptr, ptr %15, align 8, !tbaa !160
  store ptr %16, ptr %7, align 8, !tbaa !14
  call void @llvm.lifetime.start.p0(i64 4, ptr %8) #13
  %17 = load ptr, ptr %6, align 8, !tbaa !14
  %18 = getelementptr inbounds nuw %struct.Mpeg4DecContext, ptr %17, i32 0, i32 0
  %19 = getelementptr inbounds nuw %struct.MpegEncContext, ptr %18, i32 0, i32 23
  %20 = load i32, ptr %19, align 4, !tbaa !244
  store i32 %20, ptr %8, align 4, !tbaa !47
  call void @llvm.lifetime.start.p0(i64 4, ptr %9) #13
  %21 = load i32, ptr %8, align 4, !tbaa !47
  %22 = icmp ne i32 %21, 0
  br i1 %22, label %34, label %23

23:                                               ; preds = %2
  %24 = load ptr, ptr %6, align 8, !tbaa !14
  %25 = getelementptr inbounds nuw %struct.Mpeg4DecContext, ptr %24, i32 0, i32 0
  %26 = load ptr, ptr %7, align 8, !tbaa !14
  %27 = getelementptr inbounds nuw %struct.Mpeg4DecContext, ptr %26, i32 0, i32 0
  %28 = call i32 @update_mpvctx(ptr noundef %25, ptr noundef %27) #16
  store i32 %28, ptr %9, align 4, !tbaa !47
  %29 = load i32, ptr %9, align 4, !tbaa !47
  %30 = icmp slt i32 %29, 0
  br i1 %30, label %31, label %33

31:                                               ; preds = %23
  %32 = load i32, ptr %9, align 4, !tbaa !47
  store i32 %32, ptr %3, align 4
  store i32 1, ptr %10, align 4
  br label %215

33:                                               ; preds = %23
  br label %34

34:                                               ; preds = %33, %2
  %35 = load ptr, ptr %4, align 8, !tbaa !159
  %36 = load ptr, ptr %5, align 8, !tbaa !159
  %37 = call i32 @ff_mpeg_update_thread_context(ptr noundef %35, ptr noundef %36)
  store i32 %37, ptr %9, align 4, !tbaa !47
  %38 = load i32, ptr %9, align 4, !tbaa !47
  %39 = icmp slt i32 %38, 0
  br i1 %39, label %40, label %42

40:                                               ; preds = %34
  %41 = load i32, ptr %9, align 4, !tbaa !47
  store i32 %41, ptr %3, align 4
  store i32 1, ptr %10, align 4
  br label %215

42:                                               ; preds = %34
  %43 = load ptr, ptr %7, align 8, !tbaa !14
  %44 = getelementptr inbounds nuw %struct.Mpeg4DecContext, ptr %43, i32 0, i32 3
  %45 = load i32, ptr %44, align 8, !tbaa !113
  %46 = load ptr, ptr %6, align 8, !tbaa !14
  %47 = getelementptr inbounds nuw %struct.Mpeg4DecContext, ptr %46, i32 0, i32 3
  store i32 %45, ptr %47, align 8, !tbaa !113
  %48 = load ptr, ptr %7, align 8, !tbaa !14
  %49 = getelementptr inbounds nuw %struct.Mpeg4DecContext, ptr %48, i32 0, i32 4
  %50 = load i32, ptr %49, align 4, !tbaa !108
  %51 = load ptr, ptr %6, align 8, !tbaa !14
  %52 = getelementptr inbounds nuw %struct.Mpeg4DecContext, ptr %51, i32 0, i32 4
  store i32 %50, ptr %52, align 4, !tbaa !108
  %53 = load ptr, ptr %7, align 8, !tbaa !14
  %54 = getelementptr inbounds nuw %struct.Mpeg4DecContext, ptr %53, i32 0, i32 5
  %55 = load i32, ptr %54, align 8, !tbaa !114
  %56 = load ptr, ptr %6, align 8, !tbaa !14
  %57 = getelementptr inbounds nuw %struct.Mpeg4DecContext, ptr %56, i32 0, i32 5
  store i32 %55, ptr %57, align 8, !tbaa !114
  %58 = load ptr, ptr %7, align 8, !tbaa !14
  %59 = getelementptr inbounds nuw %struct.Mpeg4DecContext, ptr %58, i32 0, i32 6
  %60 = load i32, ptr %59, align 4, !tbaa !187
  %61 = load ptr, ptr %6, align 8, !tbaa !14
  %62 = getelementptr inbounds nuw %struct.Mpeg4DecContext, ptr %61, i32 0, i32 6
  store i32 %60, ptr %62, align 4, !tbaa !187
  %63 = load ptr, ptr %7, align 8, !tbaa !14
  %64 = getelementptr inbounds nuw %struct.Mpeg4DecContext, ptr %63, i32 0, i32 7
  %65 = load i32, ptr %64, align 8, !tbaa !49
  %66 = load ptr, ptr %6, align 8, !tbaa !14
  %67 = getelementptr inbounds nuw %struct.Mpeg4DecContext, ptr %66, i32 0, i32 7
  store i32 %65, ptr %67, align 8, !tbaa !49
  %68 = load ptr, ptr %7, align 8, !tbaa !14
  %69 = getelementptr inbounds nuw %struct.Mpeg4DecContext, ptr %68, i32 0, i32 8
  %70 = load i32, ptr %69, align 4, !tbaa !121
  %71 = load ptr, ptr %6, align 8, !tbaa !14
  %72 = getelementptr inbounds nuw %struct.Mpeg4DecContext, ptr %71, i32 0, i32 8
  store i32 %70, ptr %72, align 4, !tbaa !121
  %73 = load ptr, ptr %7, align 8, !tbaa !14
  %74 = getelementptr inbounds nuw %struct.Mpeg4DecContext, ptr %73, i32 0, i32 0
  %75 = getelementptr inbounds nuw %struct.MpegEncContext, ptr %74, i32 0, i32 120
  %76 = load i32, ptr %75, align 8, !tbaa !245
  %77 = load ptr, ptr %6, align 8, !tbaa !14
  %78 = getelementptr inbounds nuw %struct.Mpeg4DecContext, ptr %77, i32 0, i32 0
  %79 = getelementptr inbounds nuw %struct.MpegEncContext, ptr %78, i32 0, i32 120
  store i32 %76, ptr %79, align 8, !tbaa !245
  %80 = load ptr, ptr %7, align 8, !tbaa !14
  %81 = getelementptr inbounds nuw %struct.Mpeg4DecContext, ptr %80, i32 0, i32 14
  %82 = load i32, ptr %81, align 4, !tbaa !199
  %83 = load ptr, ptr %6, align 8, !tbaa !14
  %84 = getelementptr inbounds nuw %struct.Mpeg4DecContext, ptr %83, i32 0, i32 14
  store i32 %82, ptr %84, align 4, !tbaa !199
  %85 = load ptr, ptr %7, align 8, !tbaa !14
  %86 = getelementptr inbounds nuw %struct.Mpeg4DecContext, ptr %85, i32 0, i32 15
  %87 = load i32, ptr %86, align 8, !tbaa !197
  %88 = load ptr, ptr %6, align 8, !tbaa !14
  %89 = getelementptr inbounds nuw %struct.Mpeg4DecContext, ptr %88, i32 0, i32 15
  store i32 %87, ptr %89, align 8, !tbaa !197
  %90 = load ptr, ptr %7, align 8, !tbaa !14
  %91 = getelementptr inbounds nuw %struct.Mpeg4DecContext, ptr %90, i32 0, i32 16
  %92 = load i32, ptr %91, align 4, !tbaa !183
  %93 = load ptr, ptr %6, align 8, !tbaa !14
  %94 = getelementptr inbounds nuw %struct.Mpeg4DecContext, ptr %93, i32 0, i32 16
  store i32 %92, ptr %94, align 4, !tbaa !183
  %95 = load ptr, ptr %7, align 8, !tbaa !14
  %96 = getelementptr inbounds nuw %struct.Mpeg4DecContext, ptr %95, i32 0, i32 17
  %97 = load i32, ptr %96, align 8, !tbaa !115
  %98 = load ptr, ptr %6, align 8, !tbaa !14
  %99 = getelementptr inbounds nuw %struct.Mpeg4DecContext, ptr %98, i32 0, i32 17
  store i32 %97, ptr %99, align 8, !tbaa !115
  %100 = load ptr, ptr %7, align 8, !tbaa !14
  %101 = getelementptr inbounds nuw %struct.Mpeg4DecContext, ptr %100, i32 0, i32 18
  %102 = load i32, ptr %101, align 4, !tbaa !202
  %103 = load ptr, ptr %6, align 8, !tbaa !14
  %104 = getelementptr inbounds nuw %struct.Mpeg4DecContext, ptr %103, i32 0, i32 18
  store i32 %102, ptr %104, align 4, !tbaa !202
  %105 = load ptr, ptr %7, align 8, !tbaa !14
  %106 = getelementptr inbounds nuw %struct.Mpeg4DecContext, ptr %105, i32 0, i32 19
  %107 = load i32, ptr %106, align 8, !tbaa !200
  %108 = load ptr, ptr %6, align 8, !tbaa !14
  %109 = getelementptr inbounds nuw %struct.Mpeg4DecContext, ptr %108, i32 0, i32 19
  store i32 %107, ptr %109, align 8, !tbaa !200
  %110 = load ptr, ptr %7, align 8, !tbaa !14
  %111 = getelementptr inbounds nuw %struct.Mpeg4DecContext, ptr %110, i32 0, i32 21
  %112 = load i32, ptr %111, align 8, !tbaa !224
  %113 = load ptr, ptr %6, align 8, !tbaa !14
  %114 = getelementptr inbounds nuw %struct.Mpeg4DecContext, ptr %113, i32 0, i32 21
  store i32 %112, ptr %114, align 8, !tbaa !224
  %115 = load ptr, ptr %7, align 8, !tbaa !14
  %116 = getelementptr inbounds nuw %struct.Mpeg4DecContext, ptr %115, i32 0, i32 0
  %117 = getelementptr inbounds nuw %struct.MpegEncContext, ptr %116, i32 0, i32 125
  %118 = load i32, ptr %117, align 4, !tbaa !246
  %119 = load ptr, ptr %6, align 8, !tbaa !14
  %120 = getelementptr inbounds nuw %struct.Mpeg4DecContext, ptr %119, i32 0, i32 0
  %121 = getelementptr inbounds nuw %struct.MpegEncContext, ptr %120, i32 0, i32 125
  store i32 %118, ptr %121, align 4, !tbaa !246
  %122 = load ptr, ptr %7, align 8, !tbaa !14
  %123 = getelementptr inbounds nuw %struct.Mpeg4DecContext, ptr %122, i32 0, i32 22
  %124 = load i32, ptr %123, align 4, !tbaa !122
  %125 = load ptr, ptr %6, align 8, !tbaa !14
  %126 = getelementptr inbounds nuw %struct.Mpeg4DecContext, ptr %125, i32 0, i32 22
  store i32 %124, ptr %126, align 4, !tbaa !122
  %127 = load ptr, ptr %7, align 8, !tbaa !14
  %128 = getelementptr inbounds nuw %struct.Mpeg4DecContext, ptr %127, i32 0, i32 23
  %129 = load i32, ptr %128, align 8, !tbaa !123
  %130 = load ptr, ptr %6, align 8, !tbaa !14
  %131 = getelementptr inbounds nuw %struct.Mpeg4DecContext, ptr %130, i32 0, i32 23
  store i32 %129, ptr %131, align 8, !tbaa !123
  %132 = load ptr, ptr %7, align 8, !tbaa !14
  %133 = getelementptr inbounds nuw %struct.Mpeg4DecContext, ptr %132, i32 0, i32 24
  %134 = load i32, ptr %133, align 4, !tbaa !161
  %135 = load ptr, ptr %6, align 8, !tbaa !14
  %136 = getelementptr inbounds nuw %struct.Mpeg4DecContext, ptr %135, i32 0, i32 24
  store i32 %134, ptr %136, align 4, !tbaa !161
  %137 = load ptr, ptr %7, align 8, !tbaa !14
  %138 = getelementptr inbounds nuw %struct.Mpeg4DecContext, ptr %137, i32 0, i32 25
  %139 = load i32, ptr %138, align 8, !tbaa !162
  %140 = load ptr, ptr %6, align 8, !tbaa !14
  %141 = getelementptr inbounds nuw %struct.Mpeg4DecContext, ptr %140, i32 0, i32 25
  store i32 %139, ptr %141, align 8, !tbaa !162
  %142 = load ptr, ptr %7, align 8, !tbaa !14
  %143 = getelementptr inbounds nuw %struct.Mpeg4DecContext, ptr %142, i32 0, i32 27
  %144 = load i32, ptr %143, align 8, !tbaa !164
  %145 = load ptr, ptr %6, align 8, !tbaa !14
  %146 = getelementptr inbounds nuw %struct.Mpeg4DecContext, ptr %145, i32 0, i32 27
  store i32 %144, ptr %146, align 8, !tbaa !164
  %147 = load ptr, ptr %7, align 8, !tbaa !14
  %148 = getelementptr inbounds nuw %struct.Mpeg4DecContext, ptr %147, i32 0, i32 28
  %149 = load i32, ptr %148, align 4, !tbaa !242
  %150 = load ptr, ptr %6, align 8, !tbaa !14
  %151 = getelementptr inbounds nuw %struct.Mpeg4DecContext, ptr %150, i32 0, i32 28
  store i32 %149, ptr %151, align 4, !tbaa !242
  %152 = load ptr, ptr %7, align 8, !tbaa !14
  %153 = getelementptr inbounds nuw %struct.Mpeg4DecContext, ptr %152, i32 0, i32 29
  %154 = load i32, ptr %153, align 8, !tbaa !165
  %155 = load ptr, ptr %6, align 8, !tbaa !14
  %156 = getelementptr inbounds nuw %struct.Mpeg4DecContext, ptr %155, i32 0, i32 29
  store i32 %154, ptr %156, align 8, !tbaa !165
  %157 = load ptr, ptr %7, align 8, !tbaa !14
  %158 = getelementptr inbounds nuw %struct.Mpeg4DecContext, ptr %157, i32 0, i32 30
  %159 = load i32, ptr %158, align 4, !tbaa !194
  %160 = load ptr, ptr %6, align 8, !tbaa !14
  %161 = getelementptr inbounds nuw %struct.Mpeg4DecContext, ptr %160, i32 0, i32 30
  store i32 %159, ptr %161, align 4, !tbaa !194
  %162 = load ptr, ptr %7, align 8, !tbaa !14
  %163 = getelementptr inbounds nuw %struct.Mpeg4DecContext, ptr %162, i32 0, i32 31
  %164 = load i32, ptr %163, align 8, !tbaa !195
  %165 = load ptr, ptr %6, align 8, !tbaa !14
  %166 = getelementptr inbounds nuw %struct.Mpeg4DecContext, ptr %165, i32 0, i32 31
  store i32 %164, ptr %166, align 8, !tbaa !195
  %167 = load ptr, ptr %7, align 8, !tbaa !14
  %168 = getelementptr inbounds nuw %struct.Mpeg4DecContext, ptr %167, i32 0, i32 32
  %169 = load i32, ptr %168, align 4, !tbaa !196
  %170 = load ptr, ptr %6, align 8, !tbaa !14
  %171 = getelementptr inbounds nuw %struct.Mpeg4DecContext, ptr %170, i32 0, i32 32
  store i32 %169, ptr %171, align 4, !tbaa !196
  %172 = load ptr, ptr %7, align 8, !tbaa !14
  %173 = getelementptr inbounds nuw %struct.Mpeg4DecContext, ptr %172, i32 0, i32 33
  %174 = load i32, ptr %173, align 8, !tbaa !247
  %175 = load ptr, ptr %6, align 8, !tbaa !14
  %176 = getelementptr inbounds nuw %struct.Mpeg4DecContext, ptr %175, i32 0, i32 33
  store i32 %174, ptr %176, align 8, !tbaa !247
  %177 = load ptr, ptr %7, align 8, !tbaa !14
  %178 = getelementptr inbounds nuw %struct.Mpeg4DecContext, ptr %177, i32 0, i32 0
  %179 = getelementptr inbounds nuw %struct.MpegEncContext, ptr %178, i32 0, i32 43
  %180 = load i32, ptr %179, align 8, !tbaa !248
  %181 = load ptr, ptr %6, align 8, !tbaa !14
  %182 = getelementptr inbounds nuw %struct.Mpeg4DecContext, ptr %181, i32 0, i32 0
  %183 = getelementptr inbounds nuw %struct.MpegEncContext, ptr %182, i32 0, i32 43
  store i32 %180, ptr %183, align 8, !tbaa !248
  %184 = load ptr, ptr %6, align 8, !tbaa !14
  %185 = getelementptr inbounds nuw %struct.Mpeg4DecContext, ptr %184, i32 0, i32 13
  %186 = getelementptr inbounds [2 x i32], ptr %185, i64 0, i64 0
  %187 = load ptr, ptr %7, align 8, !tbaa !14
  %188 = getelementptr inbounds nuw %struct.Mpeg4DecContext, ptr %187, i32 0, i32 13
  %189 = getelementptr inbounds [2 x i32], ptr %188, i64 0, i64 0
  call void @llvm.memcpy.p0.p0.i64(ptr align 4 %186, ptr align 4 %189, i64 8, i1 false)
  %190 = load ptr, ptr %6, align 8, !tbaa !14
  %191 = getelementptr inbounds nuw %struct.Mpeg4DecContext, ptr %190, i32 0, i32 12
  %192 = getelementptr inbounds [4 x [2 x i16]], ptr %191, i64 0, i64 0
  %193 = load ptr, ptr %7, align 8, !tbaa !14
  %194 = getelementptr inbounds nuw %struct.Mpeg4DecContext, ptr %193, i32 0, i32 12
  %195 = getelementptr inbounds [4 x [2 x i16]], ptr %194, i64 0, i64 0
  call void @llvm.memcpy.p0.p0.i64(ptr align 4 %192, ptr align 4 %195, i64 16, i1 false)
  %196 = load i32, ptr %8, align 4, !tbaa !47
  %197 = icmp ne i32 %196, 0
  br i1 %197, label %208, label %198

198:                                              ; preds = %42
  %199 = load ptr, ptr %7, align 8, !tbaa !14
  %200 = getelementptr inbounds nuw %struct.Mpeg4DecContext, ptr %199, i32 0, i32 24
  %201 = load i32, ptr %200, align 4, !tbaa !161
  %202 = icmp sge i32 %201, 0
  br i1 %202, label %203, label %208

203:                                              ; preds = %198
  %204 = load ptr, ptr %6, align 8, !tbaa !14
  %205 = getelementptr inbounds nuw %struct.Mpeg4DecContext, ptr %204, i32 0, i32 0
  %206 = getelementptr inbounds nuw %struct.MpegEncContext, ptr %205, i32 0, i32 69
  %207 = load ptr, ptr %4, align 8, !tbaa !159
  call void @ff_xvid_idct_init(ptr noundef %206, ptr noundef %207)
  br label %208

208:                                              ; preds = %203, %198, %42
  %209 = load ptr, ptr %6, align 8, !tbaa !14
  %210 = getelementptr inbounds nuw %struct.Mpeg4DecContext, ptr %209, i32 0, i32 26
  %211 = load ptr, ptr %7, align 8, !tbaa !14
  %212 = getelementptr inbounds nuw %struct.Mpeg4DecContext, ptr %211, i32 0, i32 26
  %213 = load ptr, ptr %212, align 8, !tbaa !229
  %214 = call i32 @av_buffer_replace(ptr noundef %210, ptr noundef %213)
  store i32 %214, ptr %3, align 4
  store i32 1, ptr %10, align 4
  br label %215

215:                                              ; preds = %208, %40, %31
  call void @llvm.lifetime.end.p0(i64 4, ptr %9) #13
  call void @llvm.lifetime.end.p0(i64 4, ptr %8) #13
  call void @llvm.lifetime.end.p0(i64 8, ptr %7) #13
  call void @llvm.lifetime.end.p0(i64 8, ptr %6) #13
  %216 = load i32, ptr %3, align 4
  ret i32 %216
}