; Function Attrs: nounwind uwtable
define internal i32 @mpeg4_update_thread_context(ptr noundef %0, ptr noundef %1) #0 {
  %3 = getelementptr inbounds nuw i8, ptr %0, i64 32
  %4 = load ptr, ptr %3, align 8, !tbaa !150
  %5 = getelementptr inbounds nuw i8, ptr %1, i64 32
  %6 = load ptr, ptr %5, align 8, !tbaa !150
  %7 = getelementptr inbounds nuw i8, ptr %4, i64 532
  %8 = load i32, ptr %7, align 4, !tbaa !237
  %.not = icmp eq i32 %8, 0
  br i1 %.not, label %9, label %12

9:                                                ; preds = %2
  %10 = tail call fastcc i32 @update_mpvctx(ptr noundef nonnull %4, ptr noundef %6) #18
  %11 = icmp slt i32 %10, 0
  br i1 %11, label %112, label %12

12:                                               ; preds = %9, %2
  %13 = tail call i32 @ff_mpeg_update_thread_context(ptr noundef nonnull %0, ptr noundef nonnull %1) #16
  %14 = icmp slt i32 %13, 0
  br i1 %14, label %112, label %15

15:                                               ; preds = %12
  %16 = getelementptr inbounds nuw i8, ptr %6, i64 4816
  %17 = load i32, ptr %16, align 8, !tbaa !109
  %18 = getelementptr inbounds nuw i8, ptr %4, i64 4816
  store i32 %17, ptr %18, align 8, !tbaa !109
  %19 = getelementptr inbounds nuw i8, ptr %6, i64 4820
  %20 = load i32, ptr %19, align 4, !tbaa !103
  %21 = getelementptr inbounds nuw i8, ptr %4, i64 4820
  store i32 %20, ptr %21, align 4, !tbaa !103
  %22 = getelementptr inbounds nuw i8, ptr %6, i64 4824
  %23 = load i32, ptr %22, align 8, !tbaa !110
  %24 = getelementptr inbounds nuw i8, ptr %4, i64 4824
  store i32 %23, ptr %24, align 8, !tbaa !110
  %25 = getelementptr inbounds nuw i8, ptr %6, i64 4828
  %26 = load i32, ptr %25, align 4, !tbaa !180
  %27 = getelementptr inbounds nuw i8, ptr %4, i64 4828
  store i32 %26, ptr %27, align 4, !tbaa !180
  %28 = getelementptr inbounds nuw i8, ptr %6, i64 4832
  %29 = load i32, ptr %28, align 8, !tbaa !41
  %30 = getelementptr inbounds nuw i8, ptr %4, i64 4832
  store i32 %29, ptr %30, align 8, !tbaa !41
  %31 = getelementptr inbounds nuw i8, ptr %6, i64 4836
  %32 = load i32, ptr %31, align 4, !tbaa !112
  %33 = getelementptr inbounds nuw i8, ptr %4, i64 4836
  store i32 %32, ptr %33, align 4, !tbaa !112
  %34 = getelementptr inbounds nuw i8, ptr %6, i64 4096
  %35 = load i32, ptr %34, align 8, !tbaa !238
  %36 = getelementptr inbounds nuw i8, ptr %4, i64 4096
  store i32 %35, ptr %36, align 8, !tbaa !238
  %37 = getelementptr inbounds nuw i8, ptr %6, i64 4900
  %38 = load i32, ptr %37, align 4, !tbaa !192
  %39 = getelementptr inbounds nuw i8, ptr %4, i64 4900
  store i32 %38, ptr %39, align 4, !tbaa !192
  %40 = getelementptr inbounds nuw i8, ptr %6, i64 4904
  %41 = load i32, ptr %40, align 8, !tbaa !190
  %42 = getelementptr inbounds nuw i8, ptr %4, i64 4904
  store i32 %41, ptr %42, align 8, !tbaa !190
  %43 = getelementptr inbounds nuw i8, ptr %6, i64 4908
  %44 = load i32, ptr %43, align 4, !tbaa !177
  %45 = getelementptr inbounds nuw i8, ptr %4, i64 4908
  store i32 %44, ptr %45, align 4, !tbaa !177
  %46 = getelementptr inbounds nuw i8, ptr %6, i64 4912
  %47 = load i32, ptr %46, align 8, !tbaa !111
  %48 = getelementptr inbounds nuw i8, ptr %4, i64 4912
  store i32 %47, ptr %48, align 8, !tbaa !111
  %49 = getelementptr inbounds nuw i8, ptr %6, i64 4916
  %50 = load i32, ptr %49, align 4, !tbaa !195
  %51 = getelementptr inbounds nuw i8, ptr %4, i64 4916
  store i32 %50, ptr %51, align 4, !tbaa !195
  %52 = getelementptr inbounds nuw i8, ptr %6, i64 4920
  %53 = load i32, ptr %52, align 8, !tbaa !193
  %54 = getelementptr inbounds nuw i8, ptr %4, i64 4920
  store i32 %53, ptr %54, align 8, !tbaa !193
  %55 = getelementptr inbounds nuw i8, ptr %6, i64 4928
  %56 = load i32, ptr %55, align 8, !tbaa !217
  %57 = getelementptr inbounds nuw i8, ptr %4, i64 4928
  store i32 %56, ptr %57, align 8, !tbaa !217
  %58 = getelementptr inbounds nuw i8, ptr %6, i64 4116
  %59 = load i32, ptr %58, align 4, !tbaa !239
  %60 = getelementptr inbounds nuw i8, ptr %4, i64 4116
  store i32 %59, ptr %60, align 4, !tbaa !239
  %61 = getelementptr inbounds nuw i8, ptr %6, i64 4932
  %62 = load i32, ptr %61, align 4, !tbaa !113
  %63 = getelementptr inbounds nuw i8, ptr %4, i64 4932
  store i32 %62, ptr %63, align 4, !tbaa !113
  %64 = getelementptr inbounds nuw i8, ptr %6, i64 4936
  %65 = load i32, ptr %64, align 8, !tbaa !114
  %66 = getelementptr inbounds nuw i8, ptr %4, i64 4936
  store i32 %65, ptr %66, align 8, !tbaa !114
  %67 = getelementptr inbounds nuw i8, ptr %6, i64 4940
  %68 = load i32, ptr %67, align 4, !tbaa !151
  %69 = getelementptr inbounds nuw i8, ptr %4, i64 4940
  store i32 %68, ptr %69, align 4, !tbaa !151
  %70 = getelementptr inbounds nuw i8, ptr %6, i64 4944
  %71 = load i32, ptr %70, align 8, !tbaa !152
  %72 = getelementptr inbounds nuw i8, ptr %4, i64 4944
  store i32 %71, ptr %72, align 8, !tbaa !152
  %73 = getelementptr inbounds nuw i8, ptr %6, i64 4960
  %74 = load i32, ptr %73, align 8, !tbaa !154
  %75 = getelementptr inbounds nuw i8, ptr %4, i64 4960
  store i32 %74, ptr %75, align 8, !tbaa !154
  %76 = getelementptr inbounds nuw i8, ptr %6, i64 4964
  %77 = load i32, ptr %76, align 4, !tbaa !235
  %78 = getelementptr inbounds nuw i8, ptr %4, i64 4964
  store i32 %77, ptr %78, align 4, !tbaa !235
  %79 = getelementptr inbounds nuw i8, ptr %6, i64 4968
  %80 = load i32, ptr %79, align 8, !tbaa !155
  %81 = getelementptr inbounds nuw i8, ptr %4, i64 4968
  store i32 %80, ptr %81, align 8, !tbaa !155
  %82 = getelementptr inbounds nuw i8, ptr %6, i64 4972
  %83 = load i32, ptr %82, align 4, !tbaa !187
  %84 = getelementptr inbounds nuw i8, ptr %4, i64 4972
  store i32 %83, ptr %84, align 4, !tbaa !187
  %85 = getelementptr inbounds nuw i8, ptr %6, i64 4976
  %86 = load i32, ptr %85, align 8, !tbaa !188
  %87 = getelementptr inbounds nuw i8, ptr %4, i64 4976
  store i32 %86, ptr %87, align 8, !tbaa !188
  %88 = getelementptr inbounds nuw i8, ptr %6, i64 4980
  %89 = load i32, ptr %88, align 4, !tbaa !189
  %90 = getelementptr inbounds nuw i8, ptr %4, i64 4980
  store i32 %89, ptr %90, align 4, !tbaa !189
  %91 = getelementptr inbounds nuw i8, ptr %6, i64 4984
  %92 = load i32, ptr %91, align 8, !tbaa !166
  %93 = getelementptr inbounds nuw i8, ptr %4, i64 4984
  store i32 %92, ptr %93, align 8, !tbaa !166
  %94 = getelementptr inbounds nuw i8, ptr %6, i64 1280
  %95 = load i32, ptr %94, align 8, !tbaa !240
  %96 = getelementptr inbounds nuw i8, ptr %4, i64 1280
  store i32 %95, ptr %96, align 8, !tbaa !240
  %97 = getelementptr inbounds nuw i8, ptr %4, i64 4892
  %98 = getelementptr inbounds nuw i8, ptr %6, i64 4892
  %99 = load i64, ptr %98, align 4
  store i64 %99, ptr %97, align 4
  %100 = getelementptr inbounds nuw i8, ptr %4, i64 4876
  %101 = getelementptr inbounds nuw i8, ptr %6, i64 4876
  tail call void @llvm.memcpy.p0.p0.i64(ptr noundef nonnull align 4 dereferenceable(16) %100, ptr noundef nonnull align 4 dereferenceable(16) %101, i64 16, i1 false)
  br i1 %.not, label %102, label %107

102:                                              ; preds = %15
  %103 = load i32, ptr %67, align 4, !tbaa !151
  %104 = icmp sgt i32 %103, -1
  br i1 %104, label %105, label %107

105:                                              ; preds = %102
  %106 = getelementptr inbounds nuw i8, ptr %4, i64 2008
  tail call void @ff_xvid_idct_init(ptr noundef nonnull %106, ptr noundef nonnull %0) #16
  br label %107

107:                                              ; preds = %105, %102, %15
  %108 = getelementptr inbounds nuw i8, ptr %4, i64 4952
  %109 = getelementptr inbounds nuw i8, ptr %6, i64 4952
  %110 = load ptr, ptr %109, align 8, !tbaa !222
  %111 = tail call i32 @av_buffer_replace(ptr noundef nonnull %108, ptr noundef %110) #16
  br label %112

112:                                              ; preds = %12, %9, %107
  %.0 = phi i32 [ %111, %107 ], [ %10, %9 ], [ %13, %12 ]
  ret i32 %.0
}